; Function Attrs: mustprogress nofree norecurse nosync nounwind willreturn memory(argmem: write) uwtable
define void @_ZN6google8protobuf8compiler7VersionC2EPNS0_5ArenaE(ptr nocapture noundef nonnull writeonly align 8 dereferenceable(48) %this, ptr noundef %arena) unnamed_addr #5 align 2 personality ptr @__gxx_personality_v0 {
invoke.cont:
  %_internal_metadata_.i.i = getelementptr inbounds i8, ptr %this, i64 8
  %0 = ptrtoint ptr %arena to i64
  store i64 %0, ptr %_internal_metadata_.i.i, align 8
  store ptr getelementptr inbounds ({ [13 x ptr] }, ptr @_ZTVN6google8protobuf8compiler7VersionE, i64 0, i32 0, i64 2), ptr %this, align 8
  %arrayinit.cur.i.ptr.i = getelementptr inbounds i8, ptr %this, i64 16
  store i32 0, ptr %arrayinit.cur.i.ptr.i, align 8
  %arrayinit.end.i.i = getelementptr inbounds i8, ptr %this, i64 20
  store i32 0, ptr %arrayinit.end.i.i, align 4
  %suffix_.i.i = getelementptr inbounds i8, ptr %this, i64 24
  store ptr @_ZN6google8protobuf8internal26fixed_address_empty_stringB5cxx11E, ptr %suffix_.i.i, align 8
  %add.ptr.i = getelementptr inbounds i8, ptr %this, i64 32
  tail call void @llvm.memset.p0.i64(ptr noundef nonnull align 8 dereferenceable(12) %add.ptr.i, i8 0, i64 12, i1 false)
  ret void
}